target datalayout = "e-m:e-p270:32:32-p271:32:32-p272:64:64-i64:64-i128:128-f80:128-n8:16:32:64-S128"
target triple = "x86_64-pc-linux-gnu"

%struct.List = type { i32, i32, i32, ptr, [0 x %union.ListCell] }
%union.ListCell = type { ptr }
%struct.ParseState = type { ptr, ptr, i32, i32, ptr, ptr, ptr, ptr, ptr, ptr, i8, ptr, ptr, ptr, ptr, ptr, ptr, i8, ptr, i32, i32, ptr, ptr, i8, i8, ptr, i8, i8, i8, i8, i8, ptr, ptr, ptr, ptr, ptr, ptr }
%struct.Node = type { i32 }
%struct.RangeTblRef = type { i32, i32 }
%struct.JoinExpr = type { i32, i32, i8, ptr, ptr, ptr, ptr, ptr, ptr, i32 }

@.str.1 = private unnamed_addr constant [15 x i8] c"parse_clause.c\00", align 1
@.str.32 = private unnamed_addr constant [27 x i8] c"unrecognized node type: %d\00", align 1
@__func__.markRelsAsNulledBy = private unnamed_addr constant [19 x i8] c"markRelsAsNulledBy\00", align 1

; Function Attrs: inlinehint nounwind uwtable
define internal ptr @list_nth_cell(ptr noundef %0, i32 noundef %1) #5 {
  %3 = alloca ptr, align 8
  %4 = alloca i32, align 4
  store ptr %0, ptr %3, align 8
  store i32 %1, ptr %4, align 4
  %5 = load ptr, ptr %3, align 8
  %6 = getelementptr inbounds nuw %struct.List, ptr %5, i32 0, i32 3
  %7 = load ptr, ptr %6, align 8
  %8 = load i32, ptr %4, align 4
  %9 = sext i32 %8 to i64
  %10 = getelementptr inbounds %union.ListCell, ptr %7, i64 %9
  ret ptr %10
}

; Function Attrs: inlinehint nounwind uwtable
define internal i32 @list_length(ptr noundef %0) #5 {
  %2 = alloca ptr, align 8
  store ptr %0, ptr %2, align 8
  %3 = load ptr, ptr %2, align 8
  %4 = icmp ne ptr %3, null
  br i1 %4, label %5, label %9

5:                                                ; preds = %1
  %6 = load ptr, ptr %2, align 8
  %7 = getelementptr inbounds nuw %struct.List, ptr %6, i32 0, i32 1
  %8 = load i32, ptr %7, align 4
  br label %10

9:                                                ; preds = %1
  br label %10

10:                                               ; preds = %9, %5
  %11 = phi i32 [ %8, %5 ], [ 0, %9 ]
  ret i32 %11
}

; Function Attrs: nounwind uwtable
define internal void @markRelsAsNulledBy(ptr noundef %0, ptr noundef %1, i32 noundef %2) #0 {
  %4 = alloca ptr, align 8
  %5 = alloca ptr, align 8
  %6 = alloca i32, align 4
  %7 = alloca i32, align 4
  %8 = alloca ptr, align 8
  %9 = alloca ptr, align 8
  store ptr %0, ptr %4, align 8
  store ptr %1, ptr %5, align 8
  store i32 %2, ptr %6, align 4
  call void @llvm.lifetime.start.p0(i64 4, ptr %7) #8
  call void @llvm.lifetime.start.p0(i64 8, ptr %8) #8
  %10 = load ptr, ptr %5, align 8
  %11 = getelementptr inbounds nuw %struct.Node, ptr %10, i32 0, i32 0
  %12 = load i32, ptr %11, align 4
  %13 = icmp eq i32 %12, 63
  br i1 %13, label %14, label %18

14:                                               ; preds = %3
  %15 = load ptr, ptr %5, align 8
  %16 = getelementptr inbounds nuw %struct.RangeTblRef, ptr %15, i32 0, i32 1
  %17 = load i32, ptr %16, align 4
  store i32 %17, ptr %7, align 4
  br label %53

18:                                               ; preds = %3
  %19 = load ptr, ptr %5, align 8
  %20 = getelementptr inbounds nuw %struct.Node, ptr %19, i32 0, i32 0
  %21 = load i32, ptr %20, align 4
  %22 = icmp eq i32 %21, 64
  br i1 %22, label %23, label %38

23:                                               ; preds = %18
  call void @llvm.lifetime.start.p0(i64 8, ptr %9) #8
  %24 = load ptr, ptr %5, align 8
  store ptr %24, ptr %9, align 8
  %25 = load ptr, ptr %4, align 8
  %26 = load ptr, ptr %9, align 8
  %27 = getelementptr inbounds nuw %struct.JoinExpr, ptr %26, i32 0, i32 3
  %28 = load ptr, ptr %27, align 8
  %29 = load i32, ptr %6, align 4
  call void @markRelsAsNulledBy(ptr noundef %25, ptr noundef %28, i32 noundef %29)
  %30 = load ptr, ptr %4, align 8
  %31 = load ptr, ptr %9, align 8
  %32 = getelementptr inbounds nuw %struct.JoinExpr, ptr %31, i32 0, i32 4
  %33 = load ptr, ptr %32, align 8
  %34 = load i32, ptr %6, align 4
  call void @markRelsAsNulledBy(ptr noundef %30, ptr noundef %33, i32 noundef %34)
  %35 = load ptr, ptr %9, align 8
  %36 = getelementptr inbounds nuw %struct.JoinExpr, ptr %35, i32 0, i32 9
  %37 = load i32, ptr %36, align 8
  store i32 %37, ptr %7, align 4
  call void @llvm.lifetime.end.p0(i64 8, ptr %9) #8
  br label %52

38:                                               ; preds = %18
  br label %39

39:                                               ; preds = %38
  br i1 true, label %40, label %42

40:                                               ; preds = %39
  %41 = call zeroext i1 @errstart_cold(i32 noundef 21, ptr noundef null) #9
  br i1 %41, label %44, label %49

42:                                               ; preds = %39
  %43 = call zeroext i1 @errstart(i32 noundef 21, ptr noundef null)
  br i1 %43, label %44, label %49

44:                                               ; preds = %42, %40
  %45 = load ptr, ptr %5, align 8
  %46 = getelementptr inbounds nuw %struct.Node, ptr %45, i32 0, i32 0
  %47 = load i32, ptr %46, align 4
  %48 = call i32 (ptr, ...) @errmsg_internal(ptr noundef @.str.32, i32 noundef %47)
  call void @errfinish(ptr noundef @.str.1, i32 noundef 1795, ptr noundef @__func__.markRelsAsNulledBy)
  br label %49

49:                                               ; preds = %44, %42, %40
  unreachable

50:                                               ; No predecessors!
  br label %51

51:                                               ; preds = %50
  store i32 0, ptr %7, align 4
  br label %52

52:                                               ; preds = %51, %23
  br label %53

53:                                               ; preds = %52, %14
  br label %54

54:                                               ; preds = %61, %53
  %55 = load ptr, ptr %4, align 8
  %56 = getelementptr inbounds nuw %struct.ParseState, ptr %55, i32 0, i32 7
  %57 = load ptr, ptr %56, align 8
  %58 = call i32 @list_length(ptr noundef %57)
  %59 = load i32, ptr %7, align 4
  %60 = icmp slt i32 %58, %59
  br i1 %60, label %61, label %68

61:                                               ; preds = %54
  %62 = load ptr, ptr %4, align 8
  %63 = getelementptr inbounds nuw %struct.ParseState, ptr %62, i32 0, i32 7
  %64 = load ptr, ptr %63, align 8
  %65 = call ptr @lappend(ptr noundef %64, ptr noundef null)
  %66 = load ptr, ptr %4, align 8
  %67 = getelementptr inbounds nuw %struct.ParseState, ptr %66, i32 0, i32 7
  store ptr %65, ptr %67, align 8
  br label %54, !llvm.loop !47

68:                                               ; preds = %54
  %69 = load ptr, ptr %4, align 8
  %70 = getelementptr inbounds nuw %struct.ParseState, ptr %69, i32 0, i32 7
  %71 = load ptr, ptr %70, align 8
  %72 = load i32, ptr %7, align 4
  %73 = sub i32 %72, 1
  %74 = call ptr @list_nth_cell(ptr noundef %71, i32 noundef %73)
  store ptr %74, ptr %8, align 8
  %75 = load ptr, ptr %8, align 8
  %76 = load ptr, ptr %75, align 8
  %77 = load i32, ptr %6, align 4
  %78 = call ptr @bms_add_member(ptr noundef %76, i32 noundef %77)
  %79 = load ptr, ptr %8, align 8
  store ptr %78, ptr %79, align 8
  call void @llvm.lifetime.end.p0(i64 8, ptr %8) #8
  call void @llvm.lifetime.end.p0(i64 4, ptr %7) #8
  ret void
}