; Function Attrs: nounwind uwtable
define internal fastcc void @markRelsAsNulledBy(ptr noundef %0, ptr noundef readonly captures(none) %1, i32 noundef %2) unnamed_addr #0 {
  %4 = load i32, ptr %1, align 4
  switch i32 %4, label %10 [
    i32 63, label %14
    i32 64, label %5
  ]

5:                                                ; preds = %3
  %6 = getelementptr inbounds nuw i8, ptr %1, i64 16
  %7 = load ptr, ptr %6, align 8
  tail call fastcc void @markRelsAsNulledBy(ptr noundef %0, ptr noundef %7, i32 noundef %2)
  %8 = getelementptr inbounds nuw i8, ptr %1, i64 24
  %9 = load ptr, ptr %8, align 8
  tail call fastcc void @markRelsAsNulledBy(ptr noundef %0, ptr noundef %9, i32 noundef %2)
  br label %14

10:                                               ; preds = %3
  %11 = tail call zeroext i1 @errstart_cold(i32 noundef 21, ptr noundef null) #10
  tail call void @llvm.assume(i1 %11)
  %12 = load i32, ptr %1, align 4
  %13 = tail call i32 (ptr, ...) @errmsg_internal(ptr noundef nonnull @.str.32, i32 noundef %12) #9
  tail call void @errfinish(ptr noundef nonnull @.str.1, i32 noundef 1795, ptr noundef nonnull @__func__.markRelsAsNulledBy) #9
  unreachable

14:                                               ; preds = %3, %5
  %.sink = phi i64 [ 64, %5 ], [ 4, %3 ]
  %15 = getelementptr inbounds nuw i8, ptr %1, i64 %.sink
  %.0 = load i32, ptr %15, align 4
  %16 = getelementptr inbounds nuw i8, ptr %0, i64 48
  %.pre = load ptr, ptr %16, align 8
  br label %17

17:                                               ; preds = %24, %14
  %18 = phi ptr [ %25, %24 ], [ %.pre, %14 ]
  %.not.i = icmp eq ptr %18, null
  br i1 %.not.i, label %list_length.exit, label %19

19:                                               ; preds = %17
  %20 = getelementptr inbounds nuw i8, ptr %18, i64 4
  %21 = load i32, ptr %20, align 4
  br label %list_length.exit

list_length.exit:                                 ; preds = %17, %19
  %22 = phi i32 [ %21, %19 ], [ 0, %17 ]
  %23 = icmp slt i32 %22, %.0
  br i1 %23, label %24, label %26

24:                                               ; preds = %list_length.exit
  %25 = tail call ptr @lappend(ptr noundef %18, ptr noundef null) #9
  store ptr %25, ptr %16, align 8
  br label %17, !llvm.loop !20

26:                                               ; preds = %list_length.exit
  %27 = add i32 %.0, -1
  %28 = getelementptr i8, ptr %18, i64 16
  %.val = load ptr, ptr %28, align 8
  %29 = sext i32 %27 to i64
  %30 = getelementptr inbounds %union.ListCell, ptr %.val, i64 %29
  %31 = load ptr, ptr %30, align 8
  %32 = tail call ptr @bms_add_member(ptr noundef %31, i32 noundef %2) #9
  store ptr %32, ptr %30, align 8
  ret void
}